; Function Attrs: mustprogress uwtable
define void @_ZN3gmx20stripSuffixIfPresentERKNSt7__cxx1112basic_stringIcSt11char_traitsIcESaIcEEEPKc(ptr dead_on_unwind noalias writable sret(%"class.std::__cxx11::basic_string") align 8 %0, ptr noundef nonnull align 8 dereferenceable(32) %1, ptr noundef readonly %2) local_unnamed_addr #6 {
  %.not = icmp eq ptr %2, null
  br i1 %.not, label %_ZN3gmxL8endsWithERKNSt7__cxx1112basic_stringIcSt11char_traitsIcESaIcEEEPKc.exit.thread11, label %4

4:                                                ; preds = %3
  %5 = tail call i64 @strlen(ptr noundef nonnull dereferenceable(1) %2) #21
  %.not9 = icmp eq i64 %5, 0
  br i1 %.not9, label %_ZN3gmxL8endsWithERKNSt7__cxx1112basic_stringIcSt11char_traitsIcESaIcEEEPKc.exit.thread11, label %_ZN3gmxL13isNullOrEmptyEPKc.exit.i.i

_ZN3gmxL13isNullOrEmptyEPKc.exit.i.i:             ; preds = %4
  %6 = tail call noundef ptr @_ZNKSt7__cxx1112basic_stringIcSt11char_traitsIcESaIcEE5c_strEv(ptr noundef nonnull align 8 dereferenceable(32) %1) #22
  %7 = load i8, ptr %2, align 1
  %8 = icmp eq i8 %7, 0
  br i1 %8, label %_ZN3gmxL8endsWithERKNSt7__cxx1112basic_stringIcSt11char_traitsIcESaIcEEEPKc.exit.thread, label %9

9:                                                ; preds = %_ZN3gmxL13isNullOrEmptyEPKc.exit.i.i
  %10 = tail call i64 @strlen(ptr noundef nonnull dereferenceable(1) %6) #21
  %11 = tail call i64 @strlen(ptr noundef nonnull dereferenceable(1) %2) #21
  %.not.i.i = icmp ult i64 %10, %11
  br i1 %.not.i.i, label %_ZN3gmxL8endsWithERKNSt7__cxx1112basic_stringIcSt11char_traitsIcESaIcEEEPKc.exit.thread11, label %_ZN3gmxL8endsWithERKNSt7__cxx1112basic_stringIcSt11char_traitsIcESaIcEEEPKc.exit

_ZN3gmxL8endsWithERKNSt7__cxx1112basic_stringIcSt11char_traitsIcESaIcEEEPKc.exit: ; preds = %9
  %12 = sub i64 %10, %11
  %13 = getelementptr inbounds i8, ptr %6, i64 %12
  %14 = tail call i32 @strcmp(ptr noundef nonnull dereferenceable(1) %13, ptr noundef nonnull dereferenceable(1) %2) #21
  %15 = icmp eq i32 %14, 0
  br i1 %15, label %_ZN3gmxL8endsWithERKNSt7__cxx1112basic_stringIcSt11char_traitsIcESaIcEEEPKc.exit.thread, label %_ZN3gmxL8endsWithERKNSt7__cxx1112basic_stringIcSt11char_traitsIcESaIcEEEPKc.exit.thread11

_ZN3gmxL8endsWithERKNSt7__cxx1112basic_stringIcSt11char_traitsIcESaIcEEEPKc.exit.thread: ; preds = %_ZN3gmxL13isNullOrEmptyEPKc.exit.i.i, %_ZN3gmxL8endsWithERKNSt7__cxx1112basic_stringIcSt11char_traitsIcESaIcEEEPKc.exit
  %16 = tail call noundef i64 @_ZNKSt7__cxx1112basic_stringIcSt11char_traitsIcESaIcEE6lengthEv(ptr noundef nonnull align 8 dereferenceable(32) %1) #22
  %17 = sub i64 %16, %5
  tail call void @_ZNKSt7__cxx1112basic_stringIcSt11char_traitsIcESaIcEE6substrEmm(ptr dead_on_unwind writable sret(%"class.std::__cxx11::basic_string") align 8 %0, ptr noundef nonnull align 8 dereferenceable(32) %1, i64 noundef 0, i64 noundef %17)
  br label %18

_ZN3gmxL8endsWithERKNSt7__cxx1112basic_stringIcSt11char_traitsIcESaIcEEEPKc.exit.thread11: ; preds = %9, %4, %_ZN3gmxL8endsWithERKNSt7__cxx1112basic_stringIcSt11char_traitsIcESaIcEEEPKc.exit, %3
  tail call void @_ZNSt7__cxx1112basic_stringIcSt11char_traitsIcESaIcEEC1ERKS4_(ptr noundef nonnull align 8 dereferenceable(32) %0, ptr noundef nonnull align 8 dereferenceable(32) %1)
  br label %18

18:                                               ; preds = %_ZN3gmxL8endsWithERKNSt7__cxx1112basic_stringIcSt11char_traitsIcESaIcEEEPKc.exit.thread11, %_ZN3gmxL8endsWithERKNSt7__cxx1112basic_stringIcSt11char_traitsIcESaIcEEEPKc.exit.thread
  ret void
}